(lp0
(lp1
S'aapm_journal_localtest/Small/Hdf5/train/LCTSC-Train-S1-001.hdf5'
p2
aS'aapm_journal_localtest/Small/Hdf5/train/LCTSC-Train-S2-001.hdf5'
p3
aa(lp4
S'aapm_journal_localtest/Small/Hdf5/train/LCTSC-Train-S3-001.hdf5'
p5
aa.